#include <math.h>
#include <stdio.h>
#include <stdlib.h>
#include <string.h>

void main()
{int f(int a,int n,int m);
	int a[100],i,j=1,n,m;
scanf("%d%d",&n,&m);for(i=1;i<=n;i++) scanf("%d",&a[i]);
a[0]=a[1];for(i=1;i<=n-1;i++){a[j]=a[f(j,n,m)];j=f(j,n,m);}a[j]=a[0];
printf("%d",a[1]);for(i=2;i<=n;i++)printf(" %d",a[i]);printf("\n");

}
int f(int a,int n,int m)
{if(a<=m) return (a+n-m);
else return (a-m);}