; ModuleID = 'source-C-CXX/51/4933.c'
source_filename = "source-C-CXX/51/4933.c"
target datalayout = "e-m:e-p270:32:32-p271:32:32-p272:64:64-i64:64-f80:128-n8:16:32:64-S128"
target triple = "x86_64-pc-linux-gnu"

@.str = private unnamed_addr constant [5 x i8] c"%d%d\00", align 1
@.str.1 = private unnamed_addr constant [3 x i8] c"%d\00", align 1
@.str.2 = private unnamed_addr constant [4 x i8] c" %d\00", align 1

; Function Attrs: nofree nounwind sspstrong uwtable
define dso_local void @main() local_unnamed_addr #0 {
  %1 = alloca [100 x i32], align 16
  %2 = alloca i32, align 4
  %3 = alloca i32, align 4
  %4 = bitcast [100 x i32]* %1 to i8*
  call void @llvm.lifetime.start.p0i8(i64 400, i8* nonnull %4) #5
  %5 = bitcast i32* %2 to i8*
  call void @llvm.lifetime.start.p0i8(i64 4, i8* nonnull %5) #5
  %6 = bitcast i32* %3 to i8*
  call void @llvm.lifetime.start.p0i8(i64 4, i8* nonnull %6) #5
  %7 = call i32 (i8*, ...) @__isoc99_scanf(i8* getelementptr inbounds ([5 x i8], [5 x i8]* @.str, i64 0, i64 0), i32* nonnull %2, i32* nonnull %3)
  %8 = load i32, i32* %2, align 4, !tbaa !5
  %9 = icmp slt i32 %8, 1
  br i1 %9, label %10, label %12

10:                                               ; preds = %0
  %11 = getelementptr inbounds [100 x i32], [100 x i32]* %1, i64 0, i64 1
  br label %74

12:                                               ; preds = %0, %12
  %13 = phi i64 [ %16, %12 ], [ 1, %0 ]
  %14 = getelementptr inbounds [100 x i32], [100 x i32]* %1, i64 0, i64 %13
  %15 = call i32 (i8*, ...) @__isoc99_scanf(i8* getelementptr inbounds ([3 x i8], [3 x i8]* @.str.1, i64 0, i64 0), i32* nonnull %14)
  %16 = add nuw nsw i64 %13, 1
  %17 = load i32, i32* %2, align 4, !tbaa !5
  %18 = sext i32 %17 to i64
  %19 = icmp slt i64 %13, %18
  br i1 %19, label %12, label %20, !llvm.loop !9

20:                                               ; preds = %12
  %21 = getelementptr inbounds [100 x i32], [100 x i32]* %1, i64 0, i64 1
  %22 = load i32, i32* %21, align 4, !tbaa !5
  %23 = getelementptr inbounds [100 x i32], [100 x i32]* %1, i64 0, i64 1
  %24 = getelementptr inbounds [100 x i32], [100 x i32]* %1, i64 0, i64 0
  store i32 %22, i32* %24, align 16, !tbaa !5
  %25 = load i32, i32* %3, align 4
  %26 = icmp sgt i32 %17, 1
  br i1 %26, label %27, label %74

27:                                               ; preds = %20
  %28 = add i32 %17, -1
  %29 = and i32 %28, 1
  %30 = icmp eq i32 %17, 2
  br i1 %30, label %56, label %31

31:                                               ; preds = %27
  %32 = and i32 %28, -2
  br label %33

33:                                               ; preds = %33, %31
  %34 = phi i32 [ 1, %31 ], [ %48, %33 ]
  %35 = phi i32 [ %32, %31 ], [ %54, %33 ]
  %36 = icmp sgt i32 %34, %25
  %37 = select i1 %36, i32 0, i32 %17
  %38 = sub i32 %34, %25
  %39 = add i32 %37, %38
  %40 = sext i32 %39 to i64
  %41 = getelementptr inbounds [100 x i32], [100 x i32]* %1, i64 0, i64 %40
  %42 = load i32, i32* %41, align 4, !tbaa !5
  %43 = sext i32 %34 to i64
  %44 = getelementptr inbounds [100 x i32], [100 x i32]* %1, i64 0, i64 %43
  store i32 %42, i32* %44, align 4, !tbaa !5
  %45 = icmp sgt i32 %39, %25
  %46 = select i1 %45, i32 0, i32 %17
  %47 = sub i32 %39, %25
  %48 = add i32 %46, %47
  %49 = sext i32 %48 to i64
  %50 = getelementptr inbounds [100 x i32], [100 x i32]* %1, i64 0, i64 %49
  %51 = load i32, i32* %50, align 4, !tbaa !5
  %52 = sext i32 %39 to i64
  %53 = getelementptr inbounds [100 x i32], [100 x i32]* %1, i64 0, i64 %52
  store i32 %51, i32* %53, align 4, !tbaa !5
  %54 = add i32 %35, -2
  %55 = icmp eq i32 %54, 0
  br i1 %55, label %56, label %33, !llvm.loop !11

56:                                               ; preds = %33, %27
  %57 = phi i32 [ undef, %27 ], [ %48, %33 ]
  %58 = phi i32 [ 1, %27 ], [ %48, %33 ]
  %59 = icmp eq i32 %29, 0
  br i1 %59, label %70, label %60

60:                                               ; preds = %56
  %61 = icmp sgt i32 %58, %25
  %62 = select i1 %61, i32 0, i32 %17
  %63 = sub i32 %58, %25
  %64 = add i32 %62, %63
  %65 = sext i32 %64 to i64
  %66 = getelementptr inbounds [100 x i32], [100 x i32]* %1, i64 0, i64 %65
  %67 = load i32, i32* %66, align 4, !tbaa !5
  %68 = sext i32 %58 to i64
  %69 = getelementptr inbounds [100 x i32], [100 x i32]* %1, i64 0, i64 %68
  store i32 %67, i32* %69, align 4, !tbaa !5
  br label %70

70:                                               ; preds = %56, %60
  %71 = phi i32 [ %57, %56 ], [ %64, %60 ]
  %72 = load i32, i32* %24, align 16, !tbaa !5
  %73 = sext i32 %71 to i64
  br label %74

74:                                               ; preds = %20, %10, %70
  %75 = phi i32* [ %23, %70 ], [ %11, %10 ], [ %23, %20 ]
  %76 = phi i32 [ %72, %70 ], [ undef, %10 ], [ %22, %20 ]
  %77 = phi i64 [ %73, %70 ], [ 1, %10 ], [ 1, %20 ]
  %78 = getelementptr inbounds [100 x i32], [100 x i32]* %1, i64 0, i64 %77
  store i32 %76, i32* %78, align 4, !tbaa !5
  %79 = load i32, i32* %75, align 4, !tbaa !5
  %80 = call i32 (i8*, ...) @printf(i8* nonnull dereferenceable(1) getelementptr inbounds ([3 x i8], [3 x i8]* @.str.1, i64 0, i64 0), i32 %79)
  %81 = load i32, i32* %2, align 4, !tbaa !5
  %82 = icmp slt i32 %81, 2
  br i1 %82, label %92, label %83

83:                                               ; preds = %74, %83
  %84 = phi i64 [ %88, %83 ], [ 2, %74 ]
  %85 = getelementptr inbounds [100 x i32], [100 x i32]* %1, i64 0, i64 %84
  %86 = load i32, i32* %85, align 4, !tbaa !5
  %87 = call i32 (i8*, ...) @printf(i8* nonnull dereferenceable(1) getelementptr inbounds ([4 x i8], [4 x i8]* @.str.2, i64 0, i64 0), i32 %86)
  %88 = add nuw nsw i64 %84, 1
  %89 = load i32, i32* %2, align 4, !tbaa !5
  %90 = sext i32 %89 to i64
  %91 = icmp slt i64 %84, %90
  br i1 %91, label %83, label %92, !llvm.loop !12

92:                                               ; preds = %83, %74
  %93 = call i32 @putchar(i32 10)
  call void @llvm.lifetime.end.p0i8(i64 4, i8* nonnull %6) #5
  call void @llvm.lifetime.end.p0i8(i64 4, i8* nonnull %5) #5
  call void @llvm.lifetime.end.p0i8(i64 400, i8* nonnull %4) #5
  ret void
}

; Function Attrs: argmemonly mustprogress nofree nosync nounwind willreturn
declare void @llvm.lifetime.start.p0i8(i64 immarg, i8* nocapture) #1

; Function Attrs: nofree nounwind
declare noundef i32 @__isoc99_scanf(i8* nocapture noundef readonly, ...) local_unnamed_addr #2

; Function Attrs: mustprogress nofree norecurse nosync nounwind readnone sspstrong uwtable willreturn
define dso_local i32 @f(i32 %0, i32 %1, i32 %2) local_unnamed_addr #3 {
  %4 = icmp sgt i32 %0, %2
  %5 = select i1 %4, i32 0, i32 %1
  %6 = sub i32 %0, %2
  %7 = add i32 %6, %5
  ret i32 %7
}

; Function Attrs: nofree nounwind
declare noundef i32 @printf(i8* nocapture noundef readonly, ...) local_unnamed_addr #2

; Function Attrs: argmemonly mustprogress nofree nosync nounwind willreturn
declare void @llvm.lifetime.end.p0i8(i64 immarg, i8* nocapture) #1

; Function Attrs: nofree nounwind
declare noundef i32 @putchar(i32 noundef) local_unnamed_addr #4


!llvm.module.flags = !{!0, !1, !2, !3}
!llvm.ident = !{!4}

!0 = !{i32 1, !"wchar_size", i32 4}
!1 = !{i32 7, !"PIC Level", i32 2}
!2 = !{i32 7, !"PIE Level", i32 2}
!3 = !{i32 7, !"uwtable", i32 1}
!4 = !{!"clang version 13.0.0"}
!5 = !{!6, !6, i64 0}
!6 = !{!"int", !7, i64 0}
!7 = !{!"omnipotent char", !8, i64 0}
!8 = !{!"Simple C/C++ TBAA"}
!9 = distinct !{!9, !10}
!10 = !{!"llvm.loop.mustprogress"}
!11 = distinct !{!11, !10}
!12 = distinct !{!12, !10}
